; Function Attrs: mustprogress uwtable
define noundef double @_ZNK9grpc_core7Timeout11RatioVersusES0_(ptr noundef nonnull readonly align 2 captures(none) dereferenceable(3) %0, i32 %1) local_unnamed_addr #4 align 2 {
  %.sroa.2.0.extract.shift = lshr i32 %1, 16
  %.sroa.2.0.extract.trunc = trunc i32 %.sroa.2.0.extract.shift to i8
  %3 = load i16, ptr %0, align 2, !tbaa !3
  %4 = zext i16 %3 to i64
  %5 = getelementptr inbounds nuw i8, ptr %0, i64 2
  %6 = load i8, ptr %5, align 2, !tbaa !9
  switch i8 %6, label %26 [
    i8 0, label %_ZNK9grpc_core7Timeout10AsDurationEv.exit
    i8 1, label %7
    i8 2, label %8
    i8 3, label %10
    i8 4, label %12
    i8 5, label %14
    i8 6, label %16
    i8 7, label %18
    i8 8, label %20
    i8 9, label %22
    i8 10, label %24
  ]

7:                                                ; preds = %2
  br label %_ZNK9grpc_core7Timeout10AsDurationEv.exit

8:                                                ; preds = %2
  %9 = mul nuw nsw i64 %4, 10
  br label %_ZNK9grpc_core7Timeout10AsDurationEv.exit

10:                                               ; preds = %2
  %11 = mul nuw nsw i64 %4, 100
  br label %_ZNK9grpc_core7Timeout10AsDurationEv.exit

12:                                               ; preds = %2
  %13 = mul nuw nsw i64 %4, 1000
  br label %_ZNK9grpc_core7Timeout10AsDurationEv.exit

14:                                               ; preds = %2
  %15 = mul nuw nsw i64 %4, 10000
  br label %_ZNK9grpc_core7Timeout10AsDurationEv.exit

16:                                               ; preds = %2
  %17 = mul nuw nsw i64 %4, 100000
  br label %_ZNK9grpc_core7Timeout10AsDurationEv.exit

18:                                               ; preds = %2
  %19 = mul nuw nsw i64 %4, 60000
  br label %_ZNK9grpc_core7Timeout10AsDurationEv.exit

20:                                               ; preds = %2
  %21 = mul nuw nsw i64 %4, 600000
  br label %_ZNK9grpc_core7Timeout10AsDurationEv.exit

22:                                               ; preds = %2
  %23 = mul nuw nsw i64 %4, 6000000
  br label %_ZNK9grpc_core7Timeout10AsDurationEv.exit

24:                                               ; preds = %2
  %25 = mul nuw nsw i64 %4, 3600000
  br label %_ZNK9grpc_core7Timeout10AsDurationEv.exit

26:                                               ; preds = %2
  tail call void @gpr_unreachable_code(ptr noundef nonnull @.str, ptr noundef nonnull @.str.1, i32 noundef 89) #10
  unreachable

_ZNK9grpc_core7Timeout10AsDurationEv.exit:        ; preds = %2, %7, %8, %10, %12, %14, %16, %18, %20, %22, %24
  %.sroa.0.0.i = phi i64 [ %25, %24 ], [ %19, %18 ], [ %17, %16 ], [ %15, %14 ], [ %13, %12 ], [ %11, %10 ], [ %9, %8 ], [ %4, %7 ], [ 0, %2 ], [ %21, %20 ], [ %23, %22 ]
  %27 = and i32 %1, 65535
  %28 = zext nneg i32 %27 to i64
  switch i8 %.sroa.2.0.extract.trunc, label %47 [
    i8 0, label %_ZNK9grpc_core7Timeout10AsDurationEv.exit10.thread
    i8 1, label %_ZNK9grpc_core7Timeout10AsDurationEv.exit10
    i8 2, label %29
    i8 3, label %31
    i8 4, label %33
    i8 5, label %35
    i8 6, label %37
    i8 7, label %39
    i8 8, label %41
    i8 9, label %43
    i8 10, label %45
  ]

29:                                               ; preds = %_ZNK9grpc_core7Timeout10AsDurationEv.exit
  %30 = mul nuw nsw i64 %28, 10
  br label %_ZNK9grpc_core7Timeout10AsDurationEv.exit10

31:                                               ; preds = %_ZNK9grpc_core7Timeout10AsDurationEv.exit
  %32 = mul nuw nsw i64 %28, 100
  br label %_ZNK9grpc_core7Timeout10AsDurationEv.exit10

33:                                               ; preds = %_ZNK9grpc_core7Timeout10AsDurationEv.exit
  %34 = mul nuw nsw i64 %28, 1000
  br label %_ZNK9grpc_core7Timeout10AsDurationEv.exit10

35:                                               ; preds = %_ZNK9grpc_core7Timeout10AsDurationEv.exit
  %36 = mul nuw nsw i64 %28, 10000
  br label %_ZNK9grpc_core7Timeout10AsDurationEv.exit10

37:                                               ; preds = %_ZNK9grpc_core7Timeout10AsDurationEv.exit
  %38 = mul nuw nsw i64 %28, 100000
  br label %_ZNK9grpc_core7Timeout10AsDurationEv.exit10

39:                                               ; preds = %_ZNK9grpc_core7Timeout10AsDurationEv.exit
  %40 = mul nuw nsw i64 %28, 60000
  br label %_ZNK9grpc_core7Timeout10AsDurationEv.exit10

41:                                               ; preds = %_ZNK9grpc_core7Timeout10AsDurationEv.exit
  %42 = mul nuw nsw i64 %28, 600000
  br label %_ZNK9grpc_core7Timeout10AsDurationEv.exit10

43:                                               ; preds = %_ZNK9grpc_core7Timeout10AsDurationEv.exit
  %44 = mul nuw nsw i64 %28, 6000000
  br label %_ZNK9grpc_core7Timeout10AsDurationEv.exit10

45:                                               ; preds = %_ZNK9grpc_core7Timeout10AsDurationEv.exit
  %46 = mul nuw nsw i64 %28, 3600000
  br label %_ZNK9grpc_core7Timeout10AsDurationEv.exit10

47:                                               ; preds = %_ZNK9grpc_core7Timeout10AsDurationEv.exit
  tail call void @gpr_unreachable_code(ptr noundef nonnull @.str, ptr noundef nonnull @.str.1, i32 noundef 89) #10
  unreachable

_ZNK9grpc_core7Timeout10AsDurationEv.exit10:      ; preds = %_ZNK9grpc_core7Timeout10AsDurationEv.exit, %29, %31, %33, %35, %37, %39, %41, %43, %45
  %.sroa.0.0.i9 = phi i64 [ %46, %45 ], [ %40, %39 ], [ %38, %37 ], [ %36, %35 ], [ %34, %33 ], [ %32, %31 ], [ %30, %29 ], [ %42, %41 ], [ %44, %43 ], [ %28, %_ZNK9grpc_core7Timeout10AsDurationEv.exit ]
  %48 = icmp eq i64 %.sroa.0.0.i9, 0
  br i1 %48, label %_ZNK9grpc_core7Timeout10AsDurationEv.exit10.thread, label %50

_ZNK9grpc_core7Timeout10AsDurationEv.exit10.thread: ; preds = %_ZNK9grpc_core7Timeout10AsDurationEv.exit, %_ZNK9grpc_core7Timeout10AsDurationEv.exit10
  %.not = icmp eq i64 %.sroa.0.0.i, 0
  br i1 %.not, label %49, label %56

49:                                               ; preds = %_ZNK9grpc_core7Timeout10AsDurationEv.exit10.thread
  br label %56

50:                                               ; preds = %_ZNK9grpc_core7Timeout10AsDurationEv.exit10
  %51 = uitofp nneg i64 %.sroa.0.0.i to double
  %52 = uitofp nneg i64 %.sroa.0.0.i9 to double
  %53 = fdiv double %51, %52
  %54 = fadd double %53, -1.000000e+00
  %55 = fmul double %54, 1.000000e+02
  br label %56

56:                                               ; preds = %49, %_ZNK9grpc_core7Timeout10AsDurationEv.exit10.thread, %50
  %.0 = phi double [ %55, %50 ], [ 1.000000e+02, %_ZNK9grpc_core7Timeout10AsDurationEv.exit10.thread ], [ 0.000000e+00, %49 ]
  ret double %.0
}